target datalayout = "e-m:e-p270:32:32-p271:32:32-p272:64:64-i64:64-i128:128-f80:128-n8:16:32:64-S128"
target triple = "x86_64-pc-linux-gnu"

%"class.zxing::DecodeHints" = type { i8 }
%"class.std::vector.3" = type { %"struct.std::_Vector_base.4" }
%"struct.std::_Vector_base.4" = type { %"struct.std::_Vector_base<zxing::Ref<zxing::Result>, std::allocator<zxing::Ref<zxing::Result>>>::_Vector_impl" }
%"struct.std::_Vector_base<zxing::Ref<zxing::Result>, std::allocator<zxing::Ref<zxing::Result>>>::_Vector_impl" = type { %"struct.std::_Vector_base<zxing::Ref<zxing::Result>, std::allocator<zxing::Ref<zxing::Result>>>::_Vector_impl_data" }
%"struct.std::_Vector_base<zxing::Ref<zxing::Result>, std::allocator<zxing::Ref<zxing::Result>>>::_Vector_impl_data" = type { ptr, ptr, ptr }
%"class.zxing::Ref.8" = type { ptr }
%"class.zxing::Counted" = type <{ ptr, i32, [4 x i8] }>

; Function Attrs: mustprogress nounwind uwtable
define linkonce_odr hidden noundef ptr @_ZN5zxing7Counted6retainEv(ptr noundef nonnull align 8 dereferenceable(12) %0) #4 comdat align 2 {
  %2 = alloca ptr, align 8
  store ptr %0, ptr %2, align 8, !tbaa !239
  %3 = load ptr, ptr %2, align 8
  %4 = getelementptr inbounds nuw %"class.zxing::Counted", ptr %3, i32 0, i32 1
  %5 = load i32, ptr %4, align 8, !tbaa !241
  %6 = add i32 %5, 1
  store i32 %6, ptr %4, align 8, !tbaa !241
  ret ptr %3
}

; Function Attrs: mustprogress nounwind uwtable
define linkonce_odr hidden void @_ZN5zxing7Counted7releaseEv(ptr noundef nonnull align 8 dereferenceable(12) %0) #4 comdat align 2 {
  %2 = alloca ptr, align 8
  store ptr %0, ptr %2, align 8, !tbaa !239
  %3 = load ptr, ptr %2, align 8
  %4 = getelementptr inbounds nuw %"class.zxing::Counted", ptr %3, i32 0, i32 1
  %5 = load i32, ptr %4, align 8, !tbaa !241
  %6 = add i32 %5, -1
  store i32 %6, ptr %4, align 8, !tbaa !241
  %7 = getelementptr inbounds nuw %"class.zxing::Counted", ptr %3, i32 0, i32 1
  %8 = load i32, ptr %7, align 8, !tbaa !241
  %9 = icmp eq i32 %8, 0
  br i1 %9, label %10, label %18

10:                                               ; preds = %1
  %11 = getelementptr inbounds nuw %"class.zxing::Counted", ptr %3, i32 0, i32 1
  store i32 -559026175, ptr %11, align 8, !tbaa !241
  %12 = icmp eq ptr %3, null
  br i1 %12, label %17, label %13

13:                                               ; preds = %10
  %14 = load ptr, ptr %3, align 8, !tbaa !8
  %15 = getelementptr inbounds ptr, ptr %14, i64 1
  %16 = load ptr, ptr %15, align 8
  call void %16(ptr noundef nonnull align 8 dereferenceable(12) %3) #2
  br label %17

17:                                               ; preds = %13, %10
  br label %18

18:                                               ; preds = %17, %1
  ret void
}

; Function Attrs: mustprogress nounwind uwtable
define linkonce_odr hidden void @_ZN5zxing3RefINS_12BinaryBitmapEE5resetEPS1_(ptr noundef nonnull align 8 dereferenceable(8) %0, ptr noundef %1) #4 comdat align 2 {
  %3 = alloca ptr, align 8
  %4 = alloca ptr, align 8
  store ptr %0, ptr %3, align 8, !tbaa !53
  store ptr %1, ptr %4, align 8, !tbaa !314
  %5 = load ptr, ptr %3, align 8
  %6 = load ptr, ptr %4, align 8, !tbaa !314
  %7 = icmp ne ptr %6, null
  br i1 %7, label %8, label %11

8:                                                ; preds = %2
  %9 = load ptr, ptr %4, align 8, !tbaa !314
  %10 = call noundef ptr @_ZN5zxing7Counted6retainEv(ptr noundef nonnull align 8 dereferenceable(12) %9)
  br label %11

11:                                               ; preds = %8, %2
  %12 = getelementptr inbounds nuw %"class.zxing::Ref.8", ptr %5, i32 0, i32 0
  %13 = load ptr, ptr %12, align 8, !tbaa !55
  %14 = icmp ne ptr %13, null
  br i1 %14, label %15, label %18

15:                                               ; preds = %11
  %16 = getelementptr inbounds nuw %"class.zxing::Ref.8", ptr %5, i32 0, i32 0
  %17 = load ptr, ptr %16, align 8, !tbaa !55
  call void @_ZN5zxing7Counted7releaseEv(ptr noundef nonnull align 8 dereferenceable(12) %17)
  br label %18

18:                                               ; preds = %15, %11
  %19 = load ptr, ptr %4, align 8, !tbaa !314
  %20 = getelementptr inbounds nuw %"class.zxing::Ref.8", ptr %5, i32 0, i32 0
  store ptr %19, ptr %20, align 8, !tbaa !55
  ret void
}

; Function Attrs: mustprogress nounwind uwtable
define linkonce_odr hidden void @_ZN5zxing3RefINS_12BinaryBitmapEED2Ev(ptr noundef nonnull align 8 dereferenceable(8) %0) unnamed_addr #4 comdat align 2 {
  %2 = alloca ptr, align 8
  store ptr %0, ptr %2, align 8, !tbaa !53
  %3 = load ptr, ptr %2, align 8
  %4 = getelementptr inbounds nuw %"class.zxing::Ref.8", ptr %3, i32 0, i32 0
  %5 = load ptr, ptr %4, align 8, !tbaa !55
  %6 = icmp ne ptr %5, null
  br i1 %6, label %7, label %10

7:                                                ; preds = %1
  %8 = getelementptr inbounds nuw %"class.zxing::Ref.8", ptr %3, i32 0, i32 0
  %9 = load ptr, ptr %8, align 8, !tbaa !55
  call void @_ZN5zxing7Counted7releaseEv(ptr noundef nonnull align 8 dereferenceable(12) %9)
  br label %10

10:                                               ; preds = %7, %1
  ret void
}

; Function Attrs: mustprogress nounwind uwtable
define linkonce_odr hidden void @_ZN5zxing11DecodeHintsC2Eb(ptr noundef nonnull align 1 dereferenceable(1) %0, i1 noundef zeroext %1) unnamed_addr #4 comdat align 2 {
  %3 = alloca ptr, align 8
  %4 = alloca i8, align 1
  store ptr %0, ptr %3, align 8, !tbaa !43
  %5 = zext i1 %1 to i8
  store i8 %5, ptr %4, align 1, !tbaa !45
  %6 = load ptr, ptr %3, align 8
  %7 = getelementptr inbounds nuw %"class.zxing::DecodeHints", ptr %6, i32 0, i32 0
  %8 = load i8, ptr %4, align 1, !tbaa !45, !range !46, !noundef !47
  %9 = trunc i8 %8 to i1
  %10 = zext i1 %9 to i8
  store i8 %10, ptr %7, align 1, !tbaa !48
  ret void
}

; Function Attrs: mustprogress uwtable
define linkonce_odr hidden void @_ZN5zxing3RefINS_12BinaryBitmapEEC2ERKS2_(ptr noundef nonnull align 8 dereferenceable(8) %0, ptr noundef nonnull align 8 dereferenceable(8) %1) unnamed_addr #3 comdat align 2 {
  %3 = alloca ptr, align 8
  %4 = alloca ptr, align 8
  store ptr %0, ptr %3, align 8, !tbaa !53
  store ptr %1, ptr %4, align 8, !tbaa !53
  %5 = load ptr, ptr %3, align 8
  %6 = getelementptr inbounds nuw %"class.zxing::Ref.8", ptr %5, i32 0, i32 0
  store ptr null, ptr %6, align 8, !tbaa !55
  %7 = load ptr, ptr %4, align 8, !tbaa !53
  %8 = getelementptr inbounds nuw %"class.zxing::Ref.8", ptr %7, i32 0, i32 0
  %9 = load ptr, ptr %8, align 8, !tbaa !55
  call void @_ZN5zxing3RefINS_12BinaryBitmapEE5resetEPS1_(ptr noundef nonnull align 8 dereferenceable(8) %5, ptr noundef %9)
  ret void
}

; Function Attrs: mustprogress uwtable
define hidden void @_ZN5zxing6qrcode12QRCodeReader6decodeENS_3RefINS_12BinaryBitmapEEE(ptr dead_on_unwind noalias writable sret(%"class.std::vector.3") align 8 %0, ptr noundef nonnull align 8 dereferenceable(148) %1, ptr noundef %2) unnamed_addr #3 align 2 personality ptr @__gxx_personality_v0 {
  %4 = alloca ptr, align 8
  %5 = alloca ptr, align 8
  %6 = alloca ptr, align 8
  %7 = alloca %"class.zxing::Ref.8", align 8
  %8 = alloca %"class.zxing::DecodeHints", align 1
  %9 = alloca ptr, align 8
  %10 = alloca i32, align 4
  store ptr %0, ptr %4, align 8
  store ptr %1, ptr %5, align 8, !tbaa !3
  store ptr %2, ptr %6, align 8, !tbaa !53
  %11 = load ptr, ptr %5, align 8
  call void @_ZN5zxing3RefINS_12BinaryBitmapEEC2ERKS2_(ptr noundef nonnull align 8 dereferenceable(8) %7, ptr noundef nonnull align 8 dereferenceable(8) %2)
  invoke void @_ZN5zxing11DecodeHintsC2Eb(ptr noundef nonnull align 1 dereferenceable(1) %8, i1 noundef zeroext false)
          to label %12 unwind label %19

12:                                               ; preds = %3
  %13 = getelementptr inbounds nuw %"class.zxing::DecodeHints", ptr %8, i32 0, i32 0
  %14 = load i8, ptr %13, align 1
  %15 = load ptr, ptr %11, align 8, !tbaa !8
  %16 = getelementptr inbounds ptr, ptr %15, i64 3
  %17 = load ptr, ptr %16, align 8
  invoke void %17(ptr dead_on_unwind writable sret(%"class.std::vector.3") align 8 %0, ptr noundef nonnull align 8 dereferenceable(148) %11, ptr noundef %7, i8 %14)
          to label %18 unwind label %19

18:                                               ; preds = %12
  call void @_ZN5zxing3RefINS_12BinaryBitmapEED2Ev(ptr noundef nonnull align 8 dereferenceable(8) %7) #2
  ret void

19:                                               ; preds = %12, %3
  %20 = landingpad { ptr, i32 }
          cleanup
  %21 = extractvalue { ptr, i32 } %20, 0
  store ptr %21, ptr %9, align 8
  %22 = extractvalue { ptr, i32 } %20, 1
  store i32 %22, ptr %10, align 4
  call void @_ZN5zxing3RefINS_12BinaryBitmapEED2Ev(ptr noundef nonnull align 8 dereferenceable(8) %7) #2
  br label %23

23:                                               ; preds = %19
  %24 = load ptr, ptr %9, align 8
  %25 = load i32, ptr %10, align 4
  %26 = insertvalue { ptr, i32 } poison, ptr %24, 0
  %27 = insertvalue { ptr, i32 } %26, i32 %25, 1
  resume { ptr, i32 } %27
}