; Function Attrs: mustprogress uwtable
define hidden void @_ZN5zxing6qrcode12QRCodeReader6decodeENS_3RefINS_12BinaryBitmapEEE(ptr dead_on_unwind noalias writable sret(%"class.std::vector.3") align 8 %0, ptr noundef nonnull align 8 dereferenceable(148) %1, ptr noundef readonly captures(none) %2) unnamed_addr #2 align 2 personality ptr @__gxx_personality_v0 {
  %4 = alloca %"class.zxing::Ref.8", align 8
  %5 = load ptr, ptr %2, align 8, !tbaa !33
  %.not.i.i = icmp eq ptr %5, null
  br i1 %.not.i.i, label %_ZN5zxing3RefINS_12BinaryBitmapEEC2ERKS2_.exit, label %6

6:                                                ; preds = %3
  %7 = getelementptr inbounds nuw i8, ptr %5, i64 8
  %8 = load i32, ptr %7, align 8, !tbaa !3
  %9 = add i32 %8, 1
  store i32 %9, ptr %7, align 8, !tbaa !3
  br label %_ZN5zxing3RefINS_12BinaryBitmapEEC2ERKS2_.exit

_ZN5zxing3RefINS_12BinaryBitmapEEC2ERKS2_.exit:   ; preds = %3, %6
  store ptr %5, ptr %4, align 8, !tbaa !33
  %10 = load ptr, ptr %1, align 8, !tbaa !8
  %11 = getelementptr inbounds nuw i8, ptr %10, i64 24
  %12 = load ptr, ptr %11, align 8
  invoke void %12(ptr dead_on_unwind writable sret(%"class.std::vector.3") align 8 %0, ptr noundef nonnull align 8 dereferenceable(148) %1, ptr noundef nonnull %4, i8 0)
          to label %13 unwind label %24

13:                                               ; preds = %_ZN5zxing3RefINS_12BinaryBitmapEEC2ERKS2_.exit
  %14 = load ptr, ptr %4, align 8, !tbaa !33
  %.not.i = icmp eq ptr %14, null
  br i1 %.not.i, label %_ZN5zxing3RefINS_12BinaryBitmapEED2Ev.exit, label %15

15:                                               ; preds = %13
  %16 = getelementptr inbounds nuw i8, ptr %14, i64 8
  %17 = load i32, ptr %16, align 8, !tbaa !3
  %18 = add i32 %17, -1
  store i32 %18, ptr %16, align 8, !tbaa !3
  %19 = icmp eq i32 %18, 0
  br i1 %19, label %20, label %_ZN5zxing3RefINS_12BinaryBitmapEED2Ev.exit

20:                                               ; preds = %15
  store i32 -559026175, ptr %16, align 8, !tbaa !3
  %21 = load ptr, ptr %14, align 8, !tbaa !8
  %22 = getelementptr inbounds nuw i8, ptr %21, i64 8
  %23 = load ptr, ptr %22, align 8
  call void %23(ptr noundef nonnull align 8 dereferenceable(12) %14) #20
  br label %_ZN5zxing3RefINS_12BinaryBitmapEED2Ev.exit

_ZN5zxing3RefINS_12BinaryBitmapEED2Ev.exit:       ; preds = %13, %15, %20
  ret void

24:                                               ; preds = %_ZN5zxing3RefINS_12BinaryBitmapEEC2ERKS2_.exit
  %25 = landingpad { ptr, i32 }
          cleanup
  %26 = load ptr, ptr %4, align 8, !tbaa !33
  %.not.i2 = icmp eq ptr %26, null
  br i1 %.not.i2, label %_ZN5zxing3RefINS_12BinaryBitmapEED2Ev.exit3, label %27

27:                                               ; preds = %24
  %28 = getelementptr inbounds nuw i8, ptr %26, i64 8
  %29 = load i32, ptr %28, align 8, !tbaa !3
  %30 = add i32 %29, -1
  store i32 %30, ptr %28, align 8, !tbaa !3
  %31 = icmp eq i32 %30, 0
  br i1 %31, label %32, label %_ZN5zxing3RefINS_12BinaryBitmapEED2Ev.exit3

32:                                               ; preds = %27
  store i32 -559026175, ptr %28, align 8, !tbaa !3
  %33 = load ptr, ptr %26, align 8, !tbaa !8
  %34 = getelementptr inbounds nuw i8, ptr %33, i64 8
  %35 = load ptr, ptr %34, align 8
  call void %35(ptr noundef nonnull align 8 dereferenceable(12) %26) #20
  br label %_ZN5zxing3RefINS_12BinaryBitmapEED2Ev.exit3

_ZN5zxing3RefINS_12BinaryBitmapEED2Ev.exit3:      ; preds = %24, %27, %32
  resume { ptr, i32 } %25
}